target datalayout = "e-m:e-p270:32:32-p271:32:32-p272:64:64-i64:64-i128:128-f80:128-n8:16:32:64-S128"
target triple = "x86_64-pc-linux-gnu"

%"class.Ipopt::SumMatrix" = type { %"class.Ipopt::Matrix.base", %"class.std::vector.0", %"class.std::vector.5", ptr }
%"class.Ipopt::Matrix.base" = type <{ %"class.Ipopt::TaggedObject", %"class.Ipopt::SmartPtr", i32, i8 }>
%"class.Ipopt::TaggedObject" = type { %"class.Ipopt::ReferencedObject.base", %"class.Ipopt::Subject", i32, i32 }
%"class.Ipopt::ReferencedObject.base" = type <{ ptr, i32 }>
%"class.Ipopt::Subject" = type { ptr, %"class.std::vector" }
%"class.std::vector" = type { %"struct.std::_Vector_base" }
%"struct.std::_Vector_base" = type { %"struct.std::_Vector_base<Ipopt::Observer *, std::allocator<Ipopt::Observer *>>::_Vector_impl" }
%"struct.std::_Vector_base<Ipopt::Observer *, std::allocator<Ipopt::Observer *>>::_Vector_impl" = type { %"struct.std::_Vector_base<Ipopt::Observer *, std::allocator<Ipopt::Observer *>>::_Vector_impl_data" }
%"struct.std::_Vector_base<Ipopt::Observer *, std::allocator<Ipopt::Observer *>>::_Vector_impl_data" = type { ptr, ptr, ptr }
%"class.Ipopt::SmartPtr" = type { ptr }
%"class.std::vector.0" = type { %"struct.std::_Vector_base.1" }
%"struct.std::_Vector_base.1" = type { %"struct.std::_Vector_base<double, std::allocator<double>>::_Vector_impl" }
%"struct.std::_Vector_base<double, std::allocator<double>>::_Vector_impl" = type { %"struct.std::_Vector_base<double, std::allocator<double>>::_Vector_impl_data" }
%"struct.std::_Vector_base<double, std::allocator<double>>::_Vector_impl_data" = type { ptr, ptr, ptr }
%"class.std::vector.5" = type { %"struct.std::_Vector_base.6" }
%"struct.std::_Vector_base.6" = type { %"struct.std::_Vector_base<Ipopt::SmartPtr<const Ipopt::Matrix>, std::allocator<Ipopt::SmartPtr<const Ipopt::Matrix>>>::_Vector_impl" }
%"struct.std::_Vector_base<Ipopt::SmartPtr<const Ipopt::Matrix>, std::allocator<Ipopt::SmartPtr<const Ipopt::Matrix>>>::_Vector_impl" = type { %"struct.std::_Vector_base<Ipopt::SmartPtr<const Ipopt::Matrix>, std::allocator<Ipopt::SmartPtr<const Ipopt::Matrix>>>::_Vector_impl_data" }
%"struct.std::_Vector_base<Ipopt::SmartPtr<const Ipopt::Matrix>, std::allocator<Ipopt::SmartPtr<const Ipopt::Matrix>>>::_Vector_impl_data" = type { ptr, ptr, ptr }
%"class.Ipopt::SumMatrixSpace" = type { %"class.Ipopt::MatrixSpace.base", i32, %"class.std::vector.10" }
%"class.Ipopt::MatrixSpace.base" = type { %"class.Ipopt::ReferencedObject.base", i32, i32 }
%"class.std::vector.10" = type { %"struct.std::_Vector_base.11" }
%"struct.std::_Vector_base.11" = type { %"struct.std::_Vector_base<Ipopt::SmartPtr<const Ipopt::MatrixSpace>, std::allocator<Ipopt::SmartPtr<const Ipopt::MatrixSpace>>>::_Vector_impl" }
%"struct.std::_Vector_base<Ipopt::SmartPtr<const Ipopt::MatrixSpace>, std::allocator<Ipopt::SmartPtr<const Ipopt::MatrixSpace>>>::_Vector_impl" = type { %"struct.std::_Vector_base<Ipopt::SmartPtr<const Ipopt::MatrixSpace>, std::allocator<Ipopt::SmartPtr<const Ipopt::MatrixSpace>>>::_Vector_impl_data" }
%"struct.std::_Vector_base<Ipopt::SmartPtr<const Ipopt::MatrixSpace>, std::allocator<Ipopt::SmartPtr<const Ipopt::MatrixSpace>>>::_Vector_impl_data" = type { ptr, ptr, ptr }
%"class.Ipopt::SmartPtr.15" = type { ptr }

; Function Attrs: mustprogress nounwind uwtable
define linkonce_odr noundef i32 @_ZNK5Ipopt14SumMatrixSpace6NTermsEv(ptr noundef nonnull align 8 dereferenceable(48) %0) #1 comdat align 2 {
  %2 = alloca ptr, align 8
  store ptr %0, ptr %2, align 8, !tbaa !8
  %3 = load ptr, ptr %2, align 8
  %4 = getelementptr inbounds nuw %"class.Ipopt::SumMatrixSpace", ptr %3, i32 0, i32 1
  %5 = load i32, ptr %4, align 4, !tbaa !44
  ret i32 %5
}

; Function Attrs: mustprogress nounwind uwtable
define linkonce_odr noundef ptr @_ZNK5Ipopt8SmartPtrIKNS_6MatrixEEptEv(ptr noundef nonnull align 8 dereferenceable(8) %0) #1 comdat align 2 {
  %2 = alloca ptr, align 8
  store ptr %0, ptr %2, align 8, !tbaa !68
  %3 = load ptr, ptr %2, align 8
  %4 = getelementptr inbounds nuw %"class.Ipopt::SmartPtr.15", ptr %3, i32 0, i32 0
  %5 = load ptr, ptr %4, align 8, !tbaa !73
  ret ptr %5
}

; Function Attrs: mustprogress nounwind uwtable
define linkonce_odr noundef nonnull align 8 dereferenceable(8) ptr @_ZNKSt6vectorIN5Ipopt8SmartPtrIKNS0_6MatrixEEESaIS4_EEixEm(ptr noundef nonnull align 8 dereferenceable(24) %0, i64 noundef %1) #1 comdat align 2 {
  %3 = alloca ptr, align 8
  %4 = alloca i64, align 8
  store ptr %0, ptr %3, align 8, !tbaa !61
  store i64 %1, ptr %4, align 8, !tbaa !56
  %5 = load ptr, ptr %3, align 8
  %6 = getelementptr inbounds nuw %"struct.std::_Vector_base.6", ptr %5, i32 0, i32 0
  %7 = getelementptr inbounds nuw %"struct.std::_Vector_base<Ipopt::SmartPtr<const Ipopt::Matrix>, std::allocator<Ipopt::SmartPtr<const Ipopt::Matrix>>>::_Vector_impl_data", ptr %6, i32 0, i32 0
  %8 = load ptr, ptr %7, align 8, !tbaa !65
  %9 = load i64, ptr %4, align 8, !tbaa !56
  %10 = getelementptr inbounds nuw %"class.Ipopt::SmartPtr.15", ptr %8, i64 %9
  ret ptr %10
}

; Function Attrs: mustprogress uwtable
define noundef i32 @_ZNK5Ipopt9SumMatrix6NTermsEv(ptr noundef nonnull align 8 dereferenceable(128) %0) #0 align 2 {
  %2 = alloca ptr, align 8
  store ptr %0, ptr %2, align 8, !tbaa !3
  %3 = load ptr, ptr %2, align 8
  %4 = getelementptr inbounds nuw %"class.Ipopt::SumMatrix", ptr %3, i32 0, i32 3
  %5 = load ptr, ptr %4, align 8, !tbaa !14
  %6 = call noundef i32 @_ZNK5Ipopt14SumMatrixSpace6NTermsEv(ptr noundef nonnull align 8 dereferenceable(48) %5)
  ret i32 %6
}

; Function Attrs: mustprogress uwtable
define noundef zeroext i1 @_ZNK5Ipopt9SumMatrix19HasValidNumbersImplEv(ptr noundef nonnull align 8 dereferenceable(128) %0) unnamed_addr #0 align 2 {
  %2 = alloca i1, align 1
  %3 = alloca ptr, align 8
  %4 = alloca i32, align 4
  %5 = alloca i32, align 4
  store ptr %0, ptr %3, align 8, !tbaa !3
  %6 = load ptr, ptr %3, align 8
  call void @llvm.lifetime.start.p0(i64 4, ptr %4) #15
  store i32 0, ptr %4, align 4, !tbaa !67
  br label %7

7:                                                ; preds = %21, %1
  %8 = load i32, ptr %4, align 4, !tbaa !67
  %9 = call noundef i32 @_ZNK5Ipopt9SumMatrix6NTermsEv(ptr noundef nonnull align 8 dereferenceable(128) %6)
  %10 = icmp slt i32 %8, %9
  br i1 %10, label %12, label %11

11:                                               ; preds = %7
  store i32 2, ptr %5, align 4
  br label %24

12:                                               ; preds = %7
  %13 = getelementptr inbounds nuw %"class.Ipopt::SumMatrix", ptr %6, i32 0, i32 2
  %14 = load i32, ptr %4, align 4, !tbaa !67
  %15 = sext i32 %14 to i64
  %16 = call noundef nonnull align 8 dereferenceable(8) ptr @_ZNKSt6vectorIN5Ipopt8SmartPtrIKNS0_6MatrixEEESaIS4_EEixEm(ptr noundef nonnull align 8 dereferenceable(24) %13, i64 noundef %15) #15
  %17 = call noundef ptr @_ZNK5Ipopt8SmartPtrIKNS_6MatrixEEptEv(ptr noundef nonnull align 8 dereferenceable(8) %16)
  %18 = call noundef zeroext i1 @_ZNK5Ipopt6Matrix15HasValidNumbersEv(ptr noundef nonnull align 8 dereferenceable(69) %17)
  br i1 %18, label %20, label %19

19:                                               ; preds = %12
  store i1 false, ptr %2, align 1
  store i32 1, ptr %5, align 4
  br label %24

20:                                               ; preds = %12
  br label %21

21:                                               ; preds = %20
  %22 = load i32, ptr %4, align 4, !tbaa !67
  %23 = add nsw i32 %22, 1
  store i32 %23, ptr %4, align 4, !tbaa !67
  br label %7, !llvm.loop !76

24:                                               ; preds = %19, %11
  call void @llvm.lifetime.end.p0(i64 4, ptr %4) #15
  %25 = load i32, ptr %5, align 4
  switch i32 %25, label %29 [
    i32 2, label %26
    i32 1, label %27
  ]

26:                                               ; preds = %24
  store i1 true, ptr %2, align 1
  br label %27

27:                                               ; preds = %26, %24
  %28 = load i1, ptr %2, align 1
  ret i1 %28

29:                                               ; preds = %24
  unreachable
}