; Function Attrs: mustprogress uwtable
define noundef zeroext i1 @_ZNK5Ipopt9SumMatrix19HasValidNumbersImplEv(ptr noundef nonnull readonly align 8 captures(none) dereferenceable(128) %0) unnamed_addr #0 align 2 {
  %2 = getelementptr inbounds nuw i8, ptr %0, i64 120
  %3 = load ptr, ptr %2, align 8, !tbaa !50
  %4 = getelementptr inbounds nuw i8, ptr %3, i64 20
  %5 = load i32, ptr %4, align 4, !tbaa !25
  %6 = icmp slt i32 %5, 1
  br i1 %6, label %._crit_edge, label %.lr.ph

.lr.ph:                                           ; preds = %1
  %7 = getelementptr inbounds nuw i8, ptr %0, i64 96
  br label %13

8:                                                ; preds = %13
  %indvars.iv.next = add nuw nsw i64 %indvars.iv, 1
  %9 = load ptr, ptr %2, align 8, !tbaa !50
  %10 = getelementptr inbounds nuw i8, ptr %9, i64 20
  %11 = load i32, ptr %10, align 4, !tbaa !25
  %12 = sext i32 %11 to i64
  %.not = icmp slt i64 %indvars.iv.next, %12
  br i1 %.not, label %13, label %._crit_edge, !llvm.loop !62

13:                                               ; preds = %.lr.ph, %8
  %indvars.iv = phi i64 [ 0, %.lr.ph ], [ %indvars.iv.next, %8 ]
  %14 = load ptr, ptr %7, align 8, !tbaa !42
  %15 = getelementptr inbounds nuw %"class.Ipopt::SmartPtr.15", ptr %14, i64 %indvars.iv
  %16 = load ptr, ptr %15, align 8, !tbaa !45
  %17 = tail call noundef zeroext i1 @_ZNK5Ipopt6Matrix15HasValidNumbersEv(ptr noundef nonnull align 8 dereferenceable(69) %16)
  br i1 %17, label %8, label %._crit_edge

._crit_edge:                                      ; preds = %8, %13, %1
  %.lcssa = phi i1 [ true, %1 ], [ %17, %13 ], [ %17, %8 ]
  ret i1 %.lcssa
}